(lp0
S'poi'
p1
aS'salary'
p2
aS'wealth'
p3
aS'total_payments'
p4
aS'bonus'
p5
aS'total_stock_value'
p6
aS'fraction_to_poi'
p7
aS'exercised_stock_options'
p8
aS'deferred_income'
p9
aS'restricted_stock'
p10
aS'long_term_incentive'
p11
a.